; Function Attrs: mustprogress uwtable
define hidden void @_ZN15model_evaluatorclEP4expr(ptr noalias nonnull sret(%class.obj_ref) align 8 %agg.result, ptr nocapture noundef nonnull readonly align 8 dereferenceable(8) %this, ptr noundef %t) local_unnamed_addr #3 align 2 personality ptr @__gxx_personality_v0 {
entry:
  %0 = load ptr, ptr %this, align 8
  %m_manager.i.i = getelementptr inbounds i8, ptr %0, i64 8
  %1 = load ptr, ptr %m_manager.i.i, align 8
  store ptr null, ptr %agg.result, align 8
  %m_manager.i = getelementptr inbounds i8, ptr %agg.result, i64 8
  store ptr %1, ptr %m_manager.i, align 8
  %m_pr.i.i = getelementptr inbounds i8, ptr %0, i64 496
  invoke void @_ZN12rewriter_tplIN3mev13evaluator_cfgEEclEP4exprR7obj_refIS3_11ast_managerERS5_I3appS6_E(ptr noundef nonnull align 8 dereferenceable(536) %0, ptr noundef %t, ptr noundef nonnull align 8 dereferenceable(16) %agg.result, ptr noundef nonnull align 8 dereferenceable(16) %m_pr.i.i)
          to label %.noexc unwind label %lpad

.noexc:                                           ; preds = %entry
  %2 = load ptr, ptr %this, align 8
  %m_cfg.i.i = getelementptr inbounds i8, ptr %2, i64 536
  invoke void @_ZN3mev13evaluator_cfg13expand_storesER7obj_refI4expr11ast_managerE(ptr noundef nonnull align 8 dereferenceable(1800) %m_cfg.i.i, ptr noundef nonnull align 8 dereferenceable(16) %agg.result)
          to label %nrvo.skipdtor unwind label %lpad

lpad:                                             ; preds = %.noexc, %entry
  %3 = landingpad { ptr, i32 }
          cleanup
  tail call void @_ZN7obj_refI4expr11ast_managerED2Ev(ptr noundef nonnull align 8 dereferenceable(16) %agg.result) #18
  resume { ptr, i32 } %3

nrvo.skipdtor:                                    ; preds = %.noexc
  ret void
}